target datalayout = "e-m:e-p270:32:32-p271:32:32-p272:64:64-i64:64-i128:128-f80:128-n8:16:32:64-S128"
target triple = "x86_64-pc-linux-gnu"

%struct.AVCodecContext = type { ptr, i32, i32, ptr, i32, i32, ptr, ptr, ptr, i64, i32, i32, ptr, i32, %struct.AVRational, %struct.AVRational, %struct.AVRational, i32, i32, i32, i32, i32, %struct.AVRational, i32, i32, i32, i32, i32, i32, i32, i32, i32, i32, i32, ptr, ptr, i32, float, float, float, float, float, float, float, float, float, i32, i32, i32, i32, i32, i32, i32, i32, i32, i32, i32, i32, ptr, ptr, ptr, i32, i32, i32, i32, i32, i32, i32, i32, i32, i32, %struct.AVChannelLayout, i32, i32, i32, i32, i32, i32, i32, i32, ptr, i32, i32, i32, float, float, i32, i32, i32, i32, i32, ptr, i64, i64, float, float, i32, i32, ptr, ptr, i32, i32, i32, i32, i32, ptr, ptr, ptr, ptr, i32, i32, [8 x i64], i32, i32, i32, i32, i32, i32, i32, ptr, ptr, i32, i32, i32, i32, i32, i32, i32, i32, i32, i32, ptr, ptr, i32, i32, ptr, ptr, ptr, ptr, i32, i32, i64, i32, i32, i64, ptr, i64, ptr, i32, ptr, i32 }
%struct.AVRational = type { i32, i32 }
%struct.AVChannelLayout = type { i32, i32, %union.anon.0, ptr }
%union.anon.0 = type { i64 }
%struct.CDToonsContext = type { ptr, i16, [256 x i32], [1200 x %struct.CDToonsSprite] }
%struct.CDToonsSprite = type { i16, i16, i16, i16, i32, i32, ptr, i32 }

; Function Attrs: nounwind uwtable
define internal void @cdtoons_flush(ptr noundef %0) #1 {
  %2 = alloca ptr, align 8
  %3 = alloca ptr, align 8
  %4 = alloca i32, align 4
  store ptr %0, ptr %2, align 8, !tbaa !4
  call void @llvm.lifetime.start.p0(i64 8, ptr %3) #8
  %5 = load ptr, ptr %2, align 8, !tbaa !4
  %6 = getelementptr inbounds nuw %struct.AVCodecContext, ptr %5, i32 0, i32 6
  %7 = load ptr, ptr %6, align 8, !tbaa !9
  store ptr %7, ptr %3, align 8, !tbaa !29
  %8 = load ptr, ptr %3, align 8, !tbaa !29
  %9 = getelementptr inbounds nuw %struct.CDToonsContext, ptr %8, i32 0, i32 1
  store i16 0, ptr %9, align 8, !tbaa !32
  call void @llvm.lifetime.start.p0(i64 4, ptr %4) #8
  store i32 0, ptr %4, align 4, !tbaa !45
  br label %10

10:                                               ; preds = %21, %1
  %11 = load i32, ptr %4, align 4, !tbaa !45
  %12 = icmp slt i32 %11, 1200
  br i1 %12, label %14, label %13

13:                                               ; preds = %10
  call void @llvm.lifetime.end.p0(i64 4, ptr %4) #8
  br label %24

14:                                               ; preds = %10
  %15 = load ptr, ptr %3, align 8, !tbaa !29
  %16 = getelementptr inbounds nuw %struct.CDToonsContext, ptr %15, i32 0, i32 3
  %17 = load i32, ptr %4, align 4, !tbaa !45
  %18 = sext i32 %17 to i64
  %19 = getelementptr inbounds [1200 x %struct.CDToonsSprite], ptr %16, i64 0, i64 %18
  %20 = getelementptr inbounds nuw %struct.CDToonsSprite, ptr %19, i32 0, i32 7
  store i32 0, ptr %20, align 8, !tbaa !48
  br label %21

21:                                               ; preds = %14
  %22 = load i32, ptr %4, align 4, !tbaa !45
  %23 = add nsw i32 %22, 1
  store i32 %23, ptr %4, align 4, !tbaa !45
  br label %10, !llvm.loop !65

24:                                               ; preds = %13
  call void @llvm.lifetime.end.p0(i64 8, ptr %3) #8
  ret void
}